; Function Attrs: mustprogress uwtable
define internal void @_ZN12_GLOBAL__N_122TransformActionPrependclERKNSt7__cxx1112basic_stringIcSt11char_traitsIcESaIcEEE(ptr dead_on_unwind noalias writable sret(%"class.std::__cxx11::basic_string") align 8 %0, ptr noundef nonnull align 8 dereferenceable(48) %1, ptr noundef nonnull align 8 dereferenceable(32) %2) unnamed_addr #3 align 2 {
  %4 = alloca [2 x %"struct.std::pair.159"], align 8
  %5 = getelementptr inbounds i8, ptr %1, i64 8
  %6 = load ptr, ptr %5, align 8
  %7 = load ptr, ptr %6, align 8
  %8 = getelementptr inbounds i8, ptr %7, i64 32
  %9 = load ptr, ptr %8, align 8
  %10 = tail call noundef zeroext i1 %9(ptr noundef nonnull align 8 dereferenceable(40) %6, ptr noundef nonnull align 8 dereferenceable(32) %2)
  br i1 %10, label %11, label %22

11:                                               ; preds = %3
  %12 = getelementptr inbounds i8, ptr %1, i64 16
  call void @llvm.lifetime.start.p0(i64 48, ptr nonnull %4)
  %13 = tail call { i64, ptr } @_ZNKSt7__cxx1112basic_stringIcSt11char_traitsIcESaIcEEcvSt17basic_string_viewIcS2_EEv(ptr noundef nonnull align 8 dereferenceable(32) %12) #27, !noalias !212
  %14 = extractvalue { i64, ptr } %13, 0
  %15 = extractvalue { i64, ptr } %13, 1
  store i64 %14, ptr %4, align 8, !alias.scope !215, !noalias !212
  %.sroa.2.0..sroa_idx.i.i = getelementptr inbounds i8, ptr %4, i64 8
  store ptr %15, ptr %.sroa.2.0..sroa_idx.i.i, align 8, !alias.scope !215, !noalias !212
  %16 = getelementptr inbounds i8, ptr %4, i64 16
  store ptr null, ptr %16, align 8, !alias.scope !215, !noalias !212
  %17 = getelementptr inbounds i8, ptr %4, i64 24
  %18 = tail call { i64, ptr } @_ZNKSt7__cxx1112basic_stringIcSt11char_traitsIcESaIcEEcvSt17basic_string_viewIcS2_EEv(ptr noundef nonnull align 8 dereferenceable(32) %2) #27, !noalias !212
  %19 = extractvalue { i64, ptr } %18, 0
  %20 = extractvalue { i64, ptr } %18, 1
  store i64 %19, ptr %17, align 8, !alias.scope !218, !noalias !212
  %.sroa.2.0..sroa_idx.i6.i = getelementptr inbounds i8, ptr %4, i64 32
  store ptr %20, ptr %.sroa.2.0..sroa_idx.i6.i, align 8, !alias.scope !218, !noalias !212
  %21 = getelementptr inbounds i8, ptr %4, i64 40
  store ptr null, ptr %21, align 8, !alias.scope !218, !noalias !212
  call void @_Z10cmCatViewsSt16initializer_listISt4pairISt17basic_string_viewIcSt11char_traitsIcEEPNSt7__cxx1112basic_stringIcS3_SaIcEEEEE(ptr dead_on_unwind writable sret(%"class.std::__cxx11::basic_string") align 8 %0, ptr nonnull %4, i64 2)
  call void @llvm.lifetime.end.p0(i64 48, ptr nonnull %4)
  br label %23

22:                                               ; preds = %3
  tail call void @_ZNSt7__cxx1112basic_stringIcSt11char_traitsIcESaIcEEC1ERKS4_(ptr noundef nonnull align 8 dereferenceable(32) %0, ptr noundef nonnull align 8 dereferenceable(32) %2)
  br label %23

23:                                               ; preds = %22, %11
  ret void
}